target datalayout = "e-m:e-p270:32:32-p271:32:32-p272:64:64-i64:64-i128:128-f80:128-n8:16:32:64-S128"
target triple = "x86_64-pc-linux-gnu"

%struct.prte_oob_base_t = type { i32, i32, i32, i32, i32, %struct.pmix_list_t, i32, %struct.pmix_list_t, i32, i32, i8, ptr, ptr, ptr, ptr, i8, ptr, ptr, ptr, ptr, %struct.pmix_list_t, ptr, i32, %struct.pmix_list_t, %struct.pmix_thread_t, i8, %struct.timeval, [2 x i32], i32, i32, i32, i32, i32 }
%struct.pmix_list_t = type { %struct.pmix_object_t, %struct.pmix_list_item_t, i64 }
%struct.pmix_object_t = type { %union.pthread_mutex_t, ptr, i32, %struct.pmix_tma }
%union.pthread_mutex_t = type { %struct.__pthread_mutex_s }
%struct.__pthread_mutex_s = type { i32, i32, i32, i32, i32, i16, i16, %struct.__pthread_internal_list }
%struct.__pthread_internal_list = type { ptr, ptr }
%struct.pmix_tma = type { ptr, ptr, ptr, ptr, ptr, ptr, ptr, ptr }
%struct.pmix_list_item_t = type { %struct.pmix_object_t, ptr, ptr, i32 }
%struct.pmix_thread_t = type { %struct.pmix_object_t, ptr, ptr, i64 }
%struct.timeval = type { i64, i64 }
%struct.prte_process_info_t = type { %struct.pmix_proc, %struct.pmix_proc, ptr, %struct.pmix_proc, i32, i32, i32, ptr, ptr, i32, i8, ptr, i16, ptr, ptr, i8, ptr, i8 }
%struct.pmix_proc = type { [256 x i8], i32 }
%struct.pmix_class_t = type { ptr, ptr, ptr, ptr, i32, i32, ptr, ptr, i64 }
%struct.pmix_output_desc_t = type { i8, i8, i32, i8, i32, ptr, ptr, i32, ptr, i32, i8, i8, i8, i8, ptr, i32, i32 }
%struct.event = type { %struct.event_callback, %union.anon.0, i32, ptr, %union.anon.2, i16, i16, %struct.timeval }
%struct.event_callback = type { %struct.anon, i16, i8, i8, %union.anon, ptr }
%struct.anon = type { ptr, ptr }
%union.anon = type { ptr }
%union.anon.0 = type { %struct.anon.1 }
%struct.anon.1 = type { ptr, ptr }
%union.anon.2 = type { %struct.anon.3 }
%struct.anon.3 = type { %struct.anon.4, %struct.timeval }
%struct.anon.4 = type { ptr, ptr }
%struct.sockaddr_storage = type { i16, [118 x i8], i64 }
%struct.prte_oob_tcp_pending_connection_t = type { %struct.pmix_object_t, %struct.event, i32, %struct.sockaddr_storage }

@prte_oob_base = external global %struct.prte_oob_base_t, align 8
@prte_process_info = external global %struct.prte_process_info_t, align 8
@pmix_output_info = external global [0 x %struct.pmix_output_desc_t], align 8
@.str.25 = private unnamed_addr constant [58 x i8] c"%s connection_handler: working connection (%d, %d) %s:%d\0A\00", align 1
@.str.26 = private unnamed_addr constant [21 x i8] c"pthread_mutex_lock()\00", align 1

; Function Attrs: inlinehint nounwind uwtable
define internal void @pmix_tma_free(ptr noundef %0, ptr noundef %1) #4 {
  %3 = alloca ptr, align 8
  %4 = alloca ptr, align 8
  store ptr %0, ptr %3, align 8, !tbaa !85
  store ptr %1, ptr %4, align 8, !tbaa !67
  %5 = load ptr, ptr %3, align 8, !tbaa !85
  %6 = icmp ne ptr null, %5
  br i1 %6, label %7, label %13

7:                                                ; preds = %2
  %8 = load ptr, ptr %3, align 8, !tbaa !85
  %9 = getelementptr inbounds nuw %struct.pmix_tma, ptr %8, i32 0, i32 5
  %10 = load ptr, ptr %9, align 8, !tbaa !109
  %11 = load ptr, ptr %3, align 8, !tbaa !85
  %12 = load ptr, ptr %4, align 8, !tbaa !67
  call void %10(ptr noundef %11, ptr noundef %12)
  br label %15

13:                                               ; preds = %2
  %14 = load ptr, ptr %4, align 8, !tbaa !67
  call void @free(ptr noundef %14) #11
  br label %15

15:                                               ; preds = %13, %7
  ret void
}

; Function Attrs: inlinehint nounwind uwtable
define internal void @pmix_obj_run_destructors(ptr noundef %0) #4 {
  %2 = alloca ptr, align 8
  %3 = alloca ptr, align 8
  store ptr %0, ptr %2, align 8, !tbaa !65
  call void @llvm.lifetime.start.p0(i64 8, ptr %3) #11
  %4 = load ptr, ptr %2, align 8, !tbaa !65
  %5 = getelementptr inbounds nuw %struct.pmix_object_t, ptr %4, i32 0, i32 1
  %6 = load ptr, ptr %5, align 8, !tbaa !90
  %7 = getelementptr inbounds nuw %struct.pmix_class_t, ptr %6, i32 0, i32 7
  %8 = load ptr, ptr %7, align 8, !tbaa !107
  store ptr %8, ptr %3, align 8, !tbaa !67
  br label %9

9:                                                ; preds = %13, %1
  %10 = load ptr, ptr %3, align 8, !tbaa !67
  %11 = load ptr, ptr %10, align 8, !tbaa !67
  %12 = icmp ne ptr null, %11
  br i1 %12, label %13, label %19

13:                                               ; preds = %9
  %14 = load ptr, ptr %3, align 8, !tbaa !67
  %15 = load ptr, ptr %14, align 8, !tbaa !67
  %16 = load ptr, ptr %2, align 8, !tbaa !65
  call void %15(ptr noundef %16)
  %17 = load ptr, ptr %3, align 8, !tbaa !67
  %18 = getelementptr inbounds nuw ptr, ptr %17, i32 1
  store ptr %18, ptr %3, align 8, !tbaa !67
  br label %9, !llvm.loop !108

19:                                               ; preds = %9
  call void @llvm.lifetime.end.p0(i64 8, ptr %3) #11
  ret void
}

; Function Attrs: alwaysinline nounwind uwtable
define internal i32 @pmix_obj_update(ptr noundef %0, i32 noundef %1) #9 {
  %3 = alloca ptr, align 8
  %4 = alloca i32, align 4
  %5 = alloca i32, align 4
  store ptr %0, ptr %3, align 8, !tbaa !65
  store i32 %1, ptr %4, align 4, !tbaa !3
  call void @llvm.lifetime.start.p0(i64 4, ptr %5) #11
  %6 = load ptr, ptr %3, align 8, !tbaa !65
  %7 = getelementptr inbounds nuw %struct.pmix_object_t, ptr %6, i32 0, i32 0
  %8 = call i32 @pthread_mutex_lock(ptr noundef %7) #11
  store i32 %8, ptr %5, align 4, !tbaa !3
  %9 = load i32, ptr %5, align 4, !tbaa !3
  %10 = icmp eq i32 %9, 35
  br i1 %10, label %11, label %14

11:                                               ; preds = %2
  %12 = load i32, ptr %5, align 4, !tbaa !3
  %13 = call ptr @__errno_location() #12
  store i32 %12, ptr %13, align 4, !tbaa !3
  call void @perror(ptr noundef @.str.26)
  call void @abort() #14
  unreachable

14:                                               ; preds = %2
  %15 = load i32, ptr %4, align 4, !tbaa !3
  %16 = load ptr, ptr %3, align 8, !tbaa !65
  %17 = getelementptr inbounds nuw %struct.pmix_object_t, ptr %16, i32 0, i32 2
  %18 = load i32, ptr %17, align 8, !tbaa !91
  %19 = add nsw i32 %18, %15
  store i32 %19, ptr %17, align 8, !tbaa !91
  store i32 %19, ptr %5, align 4, !tbaa !3
  %20 = load ptr, ptr %3, align 8, !tbaa !65
  %21 = getelementptr inbounds nuw %struct.pmix_object_t, ptr %20, i32 0, i32 0
  %22 = call i32 @pthread_mutex_unlock(ptr noundef %21) #11
  %23 = load i32, ptr %5, align 4, !tbaa !3
  call void @llvm.lifetime.end.p0(i64 4, ptr %5) #11
  ret i32 %23
}

; Function Attrs: inlinehint nounwind uwtable
define internal void @pmix_atomic_rmb() #4 {
  fence acquire
  ret void
}

; Function Attrs: nounwind uwtable
define internal void @connection_handler(i32 noundef %0, i16 noundef signext %1, ptr noundef %2) #0 {
  %4 = alloca i32, align 4
  %5 = alloca i16, align 2
  %6 = alloca ptr, align 8
  %7 = alloca ptr, align 8
  %8 = alloca ptr, align 8
  store i32 %0, ptr %4, align 4, !tbaa !3
  store i16 %1, ptr %5, align 2, !tbaa !45
  store ptr %2, ptr %6, align 8, !tbaa !67
  call void @llvm.lifetime.start.p0(i64 8, ptr %7) #11
  %9 = load ptr, ptr %6, align 8, !tbaa !67
  store ptr %9, ptr %7, align 8, !tbaa !67
  call void @pmix_atomic_rmb()
  %10 = load i32, ptr @prte_oob_base, align 8, !tbaa !55
  %11 = icmp sge i32 %10, 0
  br i1 %11, label %12, label %36

12:                                               ; preds = %3
  %13 = load i32, ptr @prte_oob_base, align 8, !tbaa !55
  %14 = icmp slt i32 %13, 64
  br i1 %14, label %15, label %36

15:                                               ; preds = %12
  %16 = load i32, ptr @prte_oob_base, align 8, !tbaa !55
  %17 = sext i32 %16 to i64
  %18 = getelementptr inbounds [0 x %struct.pmix_output_desc_t], ptr @pmix_output_info, i64 0, i64 %17
  %19 = getelementptr inbounds nuw %struct.pmix_output_desc_t, ptr %18, i32 0, i32 2
  %20 = load i32, ptr %19, align 4, !tbaa !56
  %21 = icmp sge i32 %20, 4
  br i1 %21, label %22, label %36

22:                                               ; preds = %15
  %23 = load i32, ptr @prte_oob_base, align 8, !tbaa !55
  %24 = call ptr @prte_util_print_name_args(ptr noundef @prte_process_info)
  %25 = load ptr, ptr %7, align 8, !tbaa !67
  %26 = getelementptr inbounds nuw %struct.prte_oob_tcp_pending_connection_t, ptr %25, i32 0, i32 2
  %27 = load i32, ptr %26, align 8, !tbaa !76
  %28 = call ptr @__errno_location() #12
  %29 = load i32, ptr %28, align 4, !tbaa !3
  %30 = load ptr, ptr %7, align 8, !tbaa !67
  %31 = getelementptr inbounds nuw %struct.prte_oob_tcp_pending_connection_t, ptr %30, i32 0, i32 3
  %32 = call ptr @pmix_net_get_hostname(ptr noundef %31)
  %33 = load ptr, ptr %7, align 8, !tbaa !67
  %34 = getelementptr inbounds nuw %struct.prte_oob_tcp_pending_connection_t, ptr %33, i32 0, i32 3
  %35 = call i32 @pmix_net_get_port(ptr noundef %34)
  call void (i32, ptr, ...) @pmix_output(i32 noundef %23, ptr noundef @.str.25, ptr noundef %24, i32 noundef %27, i32 noundef %29, ptr noundef %32, i32 noundef %35)
  br label %36

36:                                               ; preds = %22, %15, %12, %3
  %37 = load ptr, ptr %7, align 8, !tbaa !67
  %38 = getelementptr inbounds nuw %struct.prte_oob_tcp_pending_connection_t, ptr %37, i32 0, i32 2
  %39 = load i32, ptr %38, align 8, !tbaa !76
  %40 = load ptr, ptr %7, align 8, !tbaa !67
  %41 = getelementptr inbounds nuw %struct.prte_oob_tcp_pending_connection_t, ptr %40, i32 0, i32 3
  call void @prte_oob_accept_connection(i32 noundef %39, ptr noundef %41)
  br label %42

42:                                               ; preds = %36
  call void @llvm.lifetime.start.p0(i64 8, ptr %8) #11
  %43 = load ptr, ptr %7, align 8, !tbaa !67
  store ptr %43, ptr %8, align 8, !tbaa !65
  %44 = load ptr, ptr %8, align 8, !tbaa !65
  %45 = call i32 @pmix_obj_update(ptr noundef %44, i32 noundef -1)
  %46 = icmp eq i32 0, %45
  br i1 %46, label %47, label %61

47:                                               ; preds = %42
  %48 = load ptr, ptr %8, align 8, !tbaa !65
  call void @pmix_obj_run_destructors(ptr noundef %48)
  %49 = load ptr, ptr %8, align 8, !tbaa !65
  %50 = getelementptr inbounds nuw %struct.pmix_object_t, ptr %49, i32 0, i32 3
  %51 = getelementptr inbounds nuw %struct.pmix_tma, ptr %50, i32 0, i32 5
  %52 = load ptr, ptr %51, align 8, !tbaa !79
  %53 = icmp ne ptr null, %52
  br i1 %53, label %54, label %58

54:                                               ; preds = %47
  %55 = load ptr, ptr %8, align 8, !tbaa !65
  %56 = getelementptr inbounds nuw %struct.pmix_object_t, ptr %55, i32 0, i32 3
  %57 = load ptr, ptr %7, align 8, !tbaa !67
  call void @pmix_tma_free(ptr noundef %56, ptr noundef %57)
  br label %60

58:                                               ; preds = %47
  %59 = load ptr, ptr %7, align 8, !tbaa !67
  call void @free(ptr noundef %59) #11
  br label %60

60:                                               ; preds = %58, %54
  store ptr null, ptr %7, align 8, !tbaa !67
  br label %61

61:                                               ; preds = %60, %42
  call void @llvm.lifetime.end.p0(i64 8, ptr %8) #11
  br label %62

62:                                               ; preds = %61
  br label %63

63:                                               ; preds = %62
  call void @llvm.lifetime.end.p0(i64 8, ptr %7) #11
  ret void
}