; Function Attrs: nounwind uwtable
define internal void @connection_handler(i32 %0, i16 signext %1, ptr noundef %2) #0 {
  fence acquire
  %4 = load i32, ptr @prte_oob_base, align 8, !tbaa !31
  %or.cond = icmp ult i32 %4, 64
  br i1 %or.cond, label %5, label %19

5:                                                ; preds = %3
  %6 = zext nneg i32 %4 to i64
  %7 = getelementptr inbounds nuw [0 x %struct.pmix_output_desc_t], ptr @pmix_output_info, i64 0, i64 %6, i32 2
  %8 = load i32, ptr %7, align 4, !tbaa !32
  %9 = icmp sgt i32 %8, 3
  br i1 %9, label %10, label %19

10:                                               ; preds = %5
  %11 = tail call ptr @prte_util_print_name_args(ptr noundef nonnull @prte_process_info) #13
  %12 = getelementptr inbounds nuw i8, ptr %2, i64 248
  %13 = load i32, ptr %12, align 8, !tbaa !76
  %14 = tail call ptr @__errno_location() #14
  %15 = load i32, ptr %14, align 4, !tbaa !30
  %16 = getelementptr inbounds nuw i8, ptr %2, i64 256
  %17 = tail call ptr @pmix_net_get_hostname(ptr noundef nonnull %16) #13
  %18 = tail call i32 @pmix_net_get_port(ptr noundef nonnull %16) #13
  tail call void (i32, ptr, ...) @pmix_output(i32 noundef %4, ptr noundef nonnull @.str.25, ptr noundef %11, i32 noundef %13, i32 noundef %15, ptr noundef %17, i32 noundef %18) #13
  br label %19

19:                                               ; preds = %10, %5, %3
  %20 = getelementptr inbounds nuw i8, ptr %2, i64 248
  %21 = load i32, ptr %20, align 8, !tbaa !76
  %22 = getelementptr inbounds nuw i8, ptr %2, i64 256
  tail call void @prte_oob_accept_connection(i32 noundef %21, ptr noundef nonnull %22) #13
  %23 = tail call i32 @pthread_mutex_lock(ptr noundef %2) #13
  %24 = icmp eq i32 %23, 35
  br i1 %24, label %25, label %pmix_obj_update.exit

25:                                               ; preds = %19
  %26 = tail call ptr @__errno_location() #14
  store i32 35, ptr %26, align 4, !tbaa !30
  tail call void @perror(ptr noundef nonnull @.str.26) #16
  tail call void @abort() #17
  unreachable

pmix_obj_update.exit:                             ; preds = %19
  %27 = getelementptr inbounds nuw i8, ptr %2, i64 48
  %28 = load i32, ptr %27, align 8, !tbaa !41
  %29 = add nsw i32 %28, -1
  store i32 %29, ptr %27, align 8, !tbaa !41
  %30 = tail call i32 @pthread_mutex_unlock(ptr noundef nonnull %2) #13
  %31 = icmp eq i32 %29, 0
  br i1 %31, label %32, label %46

32:                                               ; preds = %pmix_obj_update.exit
  %33 = getelementptr inbounds nuw i8, ptr %2, i64 40
  %34 = load ptr, ptr %33, align 8, !tbaa !40
  %35 = getelementptr inbounds nuw i8, ptr %34, i64 48
  %36 = load ptr, ptr %35, align 8, !tbaa !79
  %37 = load ptr, ptr %36, align 8, !tbaa !43
  %.not6.i = icmp eq ptr %37, null
  br i1 %.not6.i, label %pmix_obj_run_destructors.exit, label %.lr.ph.i

.lr.ph.i:                                         ; preds = %32, %.lr.ph.i
  %38 = phi ptr [ %40, %.lr.ph.i ], [ %37, %32 ]
  %.07.i = phi ptr [ %39, %.lr.ph.i ], [ %36, %32 ]
  tail call void %38(ptr noundef nonnull %2) #13
  %39 = getelementptr inbounds nuw i8, ptr %.07.i, i64 8
  %40 = load ptr, ptr %39, align 8, !tbaa !43
  %.not.i = icmp eq ptr %40, null
  br i1 %.not.i, label %pmix_obj_run_destructors.exit, label %.lr.ph.i, !llvm.loop !80

pmix_obj_run_destructors.exit:                    ; preds = %.lr.ph.i, %32
  %41 = getelementptr inbounds nuw i8, ptr %2, i64 96
  %42 = load ptr, ptr %41, align 8, !tbaa !81
  %.not = icmp eq ptr %42, null
  br i1 %.not, label %45, label %43

43:                                               ; preds = %pmix_obj_run_destructors.exit
  %44 = getelementptr inbounds nuw i8, ptr %2, i64 56
  tail call void %42(ptr noundef nonnull %44, ptr noundef nonnull %2) #13
  br label %46

45:                                               ; preds = %pmix_obj_run_destructors.exit
  tail call void @free(ptr noundef nonnull %2) #13
  br label %46

46:                                               ; preds = %43, %45, %pmix_obj_update.exit
  ret void
}